target datalayout = "e-m:e-p270:32:32-p271:32:32-p272:64:64-i64:64-i128:128-f80:128-n8:16:32:64-S128"
target triple = "x86_64-pc-linux-gnu"

%struct._packet_info = type { ptr, ptr, i32, i32, %struct.nstime_t, %struct.nstime_t, %struct.nstime_t, i8, ptr, ptr, ptr, ptr, %struct._address, %struct._address, %struct._address, %struct._address, %struct._address, %struct._address, i32, ptr, i8, [3 x i8], %struct.anon, i32, i32, i32, i32, ptr, i8, ptr, ptr, i16, i16, i32, i32, i16, i32, i32, ptr, ptr, ptr, i8, i8, i16, i16, i16, i32, i16, i16, ptr, ptr, ptr, ptr, ptr, i32, i32 }
%struct.nstime_t = type { i64, i32 }
%struct._address = type { i32, i32, ptr, ptr }
%struct.anon = type { i8, [3 x i8] }
%struct._dof_transport_session = type { i32, i32, %struct.nstime_t, i8, i32, %struct.nstime_t, i8, i8 }
%struct._tcp_session_data = type { %struct._dof_transport_session, i8, %struct._ws_node, %struct._ws_node, i32, i32 }
%struct._ws_node = type { %struct._address, i32 }
%struct.conversation = type { ptr, ptr, ptr, i32, i32, i32, ptr, ptr, i32, ptr }

@proto_2008_1_dof_tcp = internal global i32 0, align 4

; Function Attrs: inlinehint nounwind null_pointer_is_valid sspstrong uwtable
define internal void @clear_address(ptr noundef %0) #5 {
  %2 = alloca ptr, align 8
  store ptr %0, ptr %2, align 8
  %3 = load ptr, ptr %2, align 8
  %4 = getelementptr inbounds nuw %struct._address, ptr %3, i32 0, i32 0
  store i32 0, ptr %4, align 8
  %5 = load ptr, ptr %2, align 8
  %6 = getelementptr inbounds nuw %struct._address, ptr %5, i32 0, i32 1
  store i32 0, ptr %6, align 4
  %7 = load ptr, ptr %2, align 8
  %8 = getelementptr inbounds nuw %struct._address, ptr %7, i32 0, i32 2
  store ptr null, ptr %8, align 8
  %9 = load ptr, ptr %2, align 8
  %10 = getelementptr inbounds nuw %struct._address, ptr %9, i32 0, i32 3
  store ptr null, ptr %10, align 8
  ret void
}

; Function Attrs: inlinehint null_pointer_is_valid sspstrong uwtable
define internal void @alloc_address_wmem(ptr noundef %0, ptr noundef %1, i32 noundef %2, i32 noundef %3, ptr noundef %4) #14 {
  %6 = alloca ptr, align 8
  %7 = alloca ptr, align 8
  %8 = alloca i32, align 4
  %9 = alloca i32, align 4
  %10 = alloca ptr, align 8
  store ptr %0, ptr %6, align 8
  store ptr %1, ptr %7, align 8
  store i32 %2, ptr %8, align 4
  store i32 %3, ptr %9, align 4
  store ptr %4, ptr %10, align 8
  br label %11

11:                                               ; preds = %5
  br label %12

12:                                               ; preds = %11
  %13 = load ptr, ptr %7, align 8
  call void @clear_address(ptr noundef %13)
  %14 = load i32, ptr %8, align 4
  %15 = load ptr, ptr %7, align 8
  %16 = getelementptr inbounds nuw %struct._address, ptr %15, i32 0, i32 0
  store i32 %14, ptr %16, align 8
  %17 = load i32, ptr %9, align 4
  %18 = icmp eq i32 %17, 0
  br i1 %18, label %19, label %22

19:                                               ; preds = %12
  br label %20

20:                                               ; preds = %19
  br label %21

21:                                               ; preds = %20
  br label %39

22:                                               ; preds = %12
  br label %23

23:                                               ; preds = %22
  br label %24

24:                                               ; preds = %23
  br label %25

25:                                               ; preds = %24
  br label %26

26:                                               ; preds = %25
  %27 = load ptr, ptr %6, align 8
  %28 = load ptr, ptr %10, align 8
  %29 = load i32, ptr %9, align 4
  %30 = sext i32 %29 to i64
  %31 = call ptr @wmem_memdup(ptr noundef %27, ptr noundef %28, i64 noundef %30) #25
  %32 = load ptr, ptr %7, align 8
  %33 = getelementptr inbounds nuw %struct._address, ptr %32, i32 0, i32 3
  store ptr %31, ptr %33, align 8
  %34 = load ptr, ptr %7, align 8
  %35 = getelementptr inbounds nuw %struct._address, ptr %34, i32 0, i32 2
  store ptr %31, ptr %35, align 8
  %36 = load i32, ptr %9, align 4
  %37 = load ptr, ptr %7, align 8
  %38 = getelementptr inbounds nuw %struct._address, ptr %37, i32 0, i32 1
  store i32 %36, ptr %38, align 4
  br label %39

39:                                               ; preds = %26, %21
  ret void
}

; Function Attrs: inlinehint null_pointer_is_valid sspstrong uwtable
define internal void @copy_address_wmem(ptr noundef %0, ptr noundef %1, ptr noundef %2) #14 {
  %4 = alloca ptr, align 8
  %5 = alloca ptr, align 8
  %6 = alloca ptr, align 8
  store ptr %0, ptr %4, align 8
  store ptr %1, ptr %5, align 8
  store ptr %2, ptr %6, align 8
  %7 = load ptr, ptr %4, align 8
  %8 = load ptr, ptr %5, align 8
  %9 = load ptr, ptr %6, align 8
  %10 = getelementptr inbounds nuw %struct._address, ptr %9, i32 0, i32 0
  %11 = load i32, ptr %10, align 8
  %12 = load ptr, ptr %6, align 8
  %13 = getelementptr inbounds nuw %struct._address, ptr %12, i32 0, i32 1
  %14 = load i32, ptr %13, align 4
  %15 = load ptr, ptr %6, align 8
  %16 = getelementptr inbounds nuw %struct._address, ptr %15, i32 0, i32 2
  %17 = load ptr, ptr %16, align 8
  call void @alloc_address_wmem(ptr noundef %7, ptr noundef %8, i32 noundef %11, i32 noundef %14, ptr noundef %17)
  ret void
}

; Function Attrs: null_pointer_is_valid sspstrong uwtable
define internal ptr @create_tcp_session_data(ptr noundef %0, ptr noundef %1) #0 {
  %3 = alloca ptr, align 8
  %4 = alloca ptr, align 8
  %5 = alloca ptr, align 8
  store ptr %0, ptr %3, align 8
  store ptr %1, ptr %4, align 8
  call void @llvm.lifetime.start.p0(i64 8, ptr %5) #19
  %6 = call ptr @wmem_file_scope()
  %7 = call noalias ptr @wmem_alloc0(ptr noundef %6, i64 noundef 136) #21
  store ptr %7, ptr %5, align 8
  %8 = call ptr @wmem_file_scope()
  %9 = load ptr, ptr %5, align 8
  %10 = getelementptr inbounds nuw %struct._tcp_session_data, ptr %9, i32 0, i32 2
  %11 = getelementptr inbounds nuw %struct._ws_node, ptr %10, i32 0, i32 0
  %12 = load ptr, ptr %4, align 8
  %13 = getelementptr inbounds nuw %struct.conversation, ptr %12, i32 0, i32 9
  %14 = load ptr, ptr %13, align 8
  %15 = call ptr @conversation_key_addr1(ptr noundef %14)
  call void @copy_address_wmem(ptr noundef %8, ptr noundef %11, ptr noundef %15)
  %16 = load ptr, ptr %4, align 8
  %17 = getelementptr inbounds nuw %struct.conversation, ptr %16, i32 0, i32 9
  %18 = load ptr, ptr %17, align 8
  %19 = call i32 @conversation_key_port1(ptr noundef %18)
  %20 = load ptr, ptr %5, align 8
  %21 = getelementptr inbounds nuw %struct._tcp_session_data, ptr %20, i32 0, i32 2
  %22 = getelementptr inbounds nuw %struct._ws_node, ptr %21, i32 0, i32 1
  store i32 %19, ptr %22, align 8
  %23 = call ptr @wmem_file_scope()
  %24 = load ptr, ptr %5, align 8
  %25 = getelementptr inbounds nuw %struct._tcp_session_data, ptr %24, i32 0, i32 3
  %26 = getelementptr inbounds nuw %struct._ws_node, ptr %25, i32 0, i32 0
  %27 = load ptr, ptr %4, align 8
  %28 = getelementptr inbounds nuw %struct.conversation, ptr %27, i32 0, i32 9
  %29 = load ptr, ptr %28, align 8
  %30 = call ptr @conversation_key_addr2(ptr noundef %29)
  call void @copy_address_wmem(ptr noundef %23, ptr noundef %26, ptr noundef %30)
  %31 = load ptr, ptr %4, align 8
  %32 = getelementptr inbounds nuw %struct.conversation, ptr %31, i32 0, i32 9
  %33 = load ptr, ptr %32, align 8
  %34 = call i32 @conversation_key_port2(ptr noundef %33)
  %35 = load ptr, ptr %5, align 8
  %36 = getelementptr inbounds nuw %struct._tcp_session_data, ptr %35, i32 0, i32 3
  %37 = getelementptr inbounds nuw %struct._ws_node, ptr %36, i32 0, i32 1
  store i32 %34, ptr %37, align 8
  %38 = load ptr, ptr %5, align 8
  %39 = getelementptr inbounds nuw %struct._tcp_session_data, ptr %38, i32 0, i32 1
  store i8 0, ptr %39, align 8
  %40 = load i32, ptr @proto_2008_1_dof_tcp, align 4
  %41 = load ptr, ptr %5, align 8
  %42 = getelementptr inbounds nuw %struct._tcp_session_data, ptr %41, i32 0, i32 0
  %43 = getelementptr inbounds nuw %struct._dof_transport_session, ptr %42, i32 0, i32 0
  store i32 %40, ptr %43, align 8
  %44 = load ptr, ptr %5, align 8
  %45 = getelementptr inbounds nuw %struct._tcp_session_data, ptr %44, i32 0, i32 0
  %46 = getelementptr inbounds nuw %struct._dof_transport_session, ptr %45, i32 0, i32 7
  store i8 1, ptr %46, align 1
  %47 = load ptr, ptr %5, align 8
  %48 = getelementptr inbounds nuw %struct._tcp_session_data, ptr %47, i32 0, i32 0
  %49 = getelementptr inbounds nuw %struct._dof_transport_session, ptr %48, i32 0, i32 6
  store i8 1, ptr %49, align 8
  %50 = load ptr, ptr %5, align 8
  %51 = getelementptr inbounds nuw %struct._tcp_session_data, ptr %50, i32 0, i32 0
  %52 = getelementptr inbounds nuw %struct._dof_transport_session, ptr %51, i32 0, i32 2
  %53 = load ptr, ptr %3, align 8
  %54 = getelementptr inbounds nuw %struct._packet_info, ptr %53, i32 0, i32 4
  call void @llvm.memcpy.p0.p0.i64(ptr align 8 %52, ptr align 8 %54, i64 16, i1 false)
  %55 = load ptr, ptr %5, align 8
  %56 = getelementptr inbounds nuw %struct._tcp_session_data, ptr %55, i32 0, i32 0
  %57 = getelementptr inbounds nuw %struct._dof_transport_session, ptr %56, i32 0, i32 3
  store i8 1, ptr %57, align 8
  %58 = load ptr, ptr %5, align 8
  %59 = getelementptr inbounds nuw %struct._tcp_session_data, ptr %58, i32 0, i32 0
  %60 = getelementptr inbounds nuw %struct._dof_transport_session, ptr %59, i32 0, i32 4
  store i32 0, ptr %60, align 4
  %61 = load ptr, ptr %5, align 8
  call void @llvm.lifetime.end.p0(i64 8, ptr %5) #19
  ret ptr %61
}