; Function Attrs: null_pointer_is_valid sspstrong uwtable
define internal fastcc noalias noundef ptr @create_tcp_session_data(ptr noundef readonly captures(none) %0, ptr noundef nonnull readonly captures(none) %1) unnamed_addr #0 {
  %3 = tail call ptr @wmem_file_scope()
  %4 = tail call noalias dereferenceable_or_null(136) ptr @wmem_alloc0(ptr noundef %3, i64 noundef 136) #24
  %5 = tail call ptr @wmem_file_scope()
  %6 = getelementptr inbounds nuw i8, ptr %4, i64 64
  %7 = getelementptr inbounds nuw i8, ptr %1, i64 64
  %8 = load ptr, ptr %7, align 8
  %9 = tail call ptr @conversation_key_addr1(ptr noundef %8)
  %10 = load i32, ptr %9, align 8
  %11 = getelementptr inbounds nuw i8, ptr %9, i64 4
  %12 = load i32, ptr %11, align 4
  %13 = getelementptr inbounds nuw i8, ptr %9, i64 8
  %14 = load ptr, ptr %13, align 8
  tail call void @llvm.memset.p0.i64(ptr noundef nonnull align 8 dereferenceable(24) %6, i8 0, i64 24, i1 false)
  store i32 %10, ptr %6, align 8
  %15 = icmp eq i32 %12, 0
  br i1 %15, label %copy_address_wmem.exit, label %16

16:                                               ; preds = %2
  %17 = sext i32 %12 to i64
  %18 = tail call ptr @wmem_memdup(ptr noundef %5, ptr noundef %14, i64 noundef %17) #29
  %19 = getelementptr inbounds nuw i8, ptr %4, i64 80
  store ptr %18, ptr %19, align 8
  %20 = getelementptr inbounds nuw i8, ptr %4, i64 72
  store ptr %18, ptr %20, align 8
  %21 = getelementptr inbounds nuw i8, ptr %4, i64 68
  store i32 %12, ptr %21, align 4
  br label %copy_address_wmem.exit

copy_address_wmem.exit:                           ; preds = %2, %16
  %22 = load ptr, ptr %7, align 8
  %23 = tail call i32 @conversation_key_port1(ptr noundef %22)
  %24 = getelementptr inbounds nuw i8, ptr %4, i64 88
  store i32 %23, ptr %24, align 8
  %25 = tail call ptr @wmem_file_scope()
  %26 = getelementptr inbounds nuw i8, ptr %4, i64 96
  %27 = load ptr, ptr %7, align 8
  %28 = tail call ptr @conversation_key_addr2(ptr noundef %27)
  %29 = load i32, ptr %28, align 8
  %30 = getelementptr inbounds nuw i8, ptr %28, i64 4
  %31 = load i32, ptr %30, align 4
  %32 = getelementptr inbounds nuw i8, ptr %28, i64 8
  %33 = load ptr, ptr %32, align 8
  tail call void @llvm.memset.p0.i64(ptr noundef nonnull align 8 dereferenceable(24) %26, i8 0, i64 24, i1 false)
  store i32 %29, ptr %26, align 8
  %34 = icmp eq i32 %31, 0
  br i1 %34, label %copy_address_wmem.exit17, label %35

35:                                               ; preds = %copy_address_wmem.exit
  %36 = sext i32 %31 to i64
  %37 = tail call ptr @wmem_memdup(ptr noundef %25, ptr noundef %33, i64 noundef %36) #29
  %38 = getelementptr inbounds nuw i8, ptr %4, i64 112
  store ptr %37, ptr %38, align 8
  %39 = getelementptr inbounds nuw i8, ptr %4, i64 104
  store ptr %37, ptr %39, align 8
  %40 = getelementptr inbounds nuw i8, ptr %4, i64 100
  store i32 %31, ptr %40, align 4
  br label %copy_address_wmem.exit17

copy_address_wmem.exit17:                         ; preds = %copy_address_wmem.exit, %35
  %41 = load ptr, ptr %7, align 8
  %42 = tail call i32 @conversation_key_port2(ptr noundef %41)
  %43 = getelementptr inbounds nuw i8, ptr %4, i64 120
  store i32 %42, ptr %43, align 8
  %44 = getelementptr inbounds nuw i8, ptr %4, i64 56
  store i8 0, ptr %44, align 8
  %45 = load i32, ptr @proto_2008_1_dof_tcp, align 4
  store i32 %45, ptr %4, align 8
  %46 = getelementptr inbounds nuw i8, ptr %4, i64 49
  store i8 1, ptr %46, align 1
  %47 = getelementptr inbounds nuw i8, ptr %4, i64 48
  store i8 1, ptr %47, align 8
  %48 = getelementptr inbounds nuw i8, ptr %4, i64 8
  %49 = getelementptr inbounds nuw i8, ptr %0, i64 24
  tail call void @llvm.memcpy.p0.p0.i64(ptr noundef nonnull align 8 dereferenceable(16) %48, ptr noundef nonnull align 8 dereferenceable(16) %49, i64 16, i1 false)
  %50 = getelementptr inbounds nuw i8, ptr %4, i64 24
  store i8 1, ptr %50, align 8
  %51 = getelementptr inbounds nuw i8, ptr %4, i64 28
  store i32 0, ptr %51, align 4
  ret ptr %4
}